target datalayout = "e-m:e-p270:32:32-p271:32:32-p272:64:64-i64:64-i128:128-f80:128-n8:16:32:64-S128"
target triple = "x86_64-pc-linux-gnu"

%struct.NSVGparser = type { [128 x %struct.NSVGattrib], i32, ptr, i32, i32, ptr, ptr, ptr, ptr, float, float, float, float, i32, i32, i32, float, i8, i8 }
%struct.NSVGattrib = type { [64 x i8], [6 x float], i32, i32, float, float, float, [64 x i8], [64 x i8], float, float, [8 x float], i32, i8, i8, float, i8, float, i32, float, float, i8, i8, i8 }
%struct.NSVGcoordinate = type { float, i32 }

; Function Attrs: nounwind uwtable
define internal ptr @nsvg__getAttr(ptr noundef %0) #0 {
  %2 = alloca ptr, align 8
  store ptr %0, ptr %2, align 8, !tbaa !27
  %3 = load ptr, ptr %2, align 8, !tbaa !27
  %4 = getelementptr inbounds nuw %struct.NSVGparser, ptr %3, i32 0, i32 0
  %5 = load ptr, ptr %2, align 8, !tbaa !27
  %6 = getelementptr inbounds nuw %struct.NSVGparser, ptr %5, i32 0, i32 1
  %7 = load i32, ptr %6, align 8, !tbaa !216
  %8 = sext i32 %7 to i64
  %9 = getelementptr inbounds [128 x %struct.NSVGattrib], ptr %4, i64 0, i64 %8
  ret ptr %9
}

; Function Attrs: nounwind uwtable
define internal float @nsvg__convertToPixels(ptr noundef %0, i64 %1, float noundef %2, float noundef %3) #0 {
  %5 = alloca float, align 4
  %6 = alloca %struct.NSVGcoordinate, align 4
  %7 = alloca ptr, align 8
  %8 = alloca float, align 4
  %9 = alloca float, align 4
  %10 = alloca ptr, align 8
  %11 = alloca i32, align 4
  store i64 %1, ptr %6, align 4
  store ptr %0, ptr %7, align 8, !tbaa !27
  store float %2, ptr %8, align 4, !tbaa !23
  store float %3, ptr %9, align 4, !tbaa !23
  call void @llvm.lifetime.start.p0(i64 8, ptr %10) #11
  %12 = load ptr, ptr %7, align 8, !tbaa !27
  %13 = call ptr @nsvg__getAttr(ptr noundef %12)
  store ptr %13, ptr %10, align 8, !tbaa !205
  %14 = getelementptr inbounds nuw %struct.NSVGcoordinate, ptr %6, i32 0, i32 1
  %15 = load i32, ptr %14, align 4, !tbaa !233
  switch i32 %15, label %83 [
    i32 0, label %16
    i32 1, label %19
    i32 2, label %22
    i32 3, label %30
    i32 4, label %38
    i32 5, label %46
    i32 6, label %54
    i32 8, label %61
    i32 9, label %68
    i32 7, label %76
  ]

16:                                               ; preds = %4
  %17 = getelementptr inbounds nuw %struct.NSVGcoordinate, ptr %6, i32 0, i32 0
  %18 = load float, ptr %17, align 4, !tbaa !231
  store float %18, ptr %5, align 4
  store i32 1, ptr %11, align 4
  br label %86

19:                                               ; preds = %4
  %20 = getelementptr inbounds nuw %struct.NSVGcoordinate, ptr %6, i32 0, i32 0
  %21 = load float, ptr %20, align 4, !tbaa !231
  store float %21, ptr %5, align 4
  store i32 1, ptr %11, align 4
  br label %86

22:                                               ; preds = %4
  %23 = getelementptr inbounds nuw %struct.NSVGcoordinate, ptr %6, i32 0, i32 0
  %24 = load float, ptr %23, align 4, !tbaa !231
  %25 = fdiv float %24, 7.200000e+01
  %26 = load ptr, ptr %7, align 8, !tbaa !27
  %27 = getelementptr inbounds nuw %struct.NSVGparser, ptr %26, i32 0, i32 16
  %28 = load float, ptr %27, align 4, !tbaa !29
  %29 = fmul float %25, %28
  store float %29, ptr %5, align 4
  store i32 1, ptr %11, align 4
  br label %86

30:                                               ; preds = %4
  %31 = getelementptr inbounds nuw %struct.NSVGcoordinate, ptr %6, i32 0, i32 0
  %32 = load float, ptr %31, align 4, !tbaa !231
  %33 = fdiv float %32, 6.000000e+00
  %34 = load ptr, ptr %7, align 8, !tbaa !27
  %35 = getelementptr inbounds nuw %struct.NSVGparser, ptr %34, i32 0, i32 16
  %36 = load float, ptr %35, align 4, !tbaa !29
  %37 = fmul float %33, %36
  store float %37, ptr %5, align 4
  store i32 1, ptr %11, align 4
  br label %86

38:                                               ; preds = %4
  %39 = getelementptr inbounds nuw %struct.NSVGcoordinate, ptr %6, i32 0, i32 0
  %40 = load float, ptr %39, align 4, !tbaa !231
  %41 = fdiv float %40, 0x4039666660000000
  %42 = load ptr, ptr %7, align 8, !tbaa !27
  %43 = getelementptr inbounds nuw %struct.NSVGparser, ptr %42, i32 0, i32 16
  %44 = load float, ptr %43, align 4, !tbaa !29
  %45 = fmul float %41, %44
  store float %45, ptr %5, align 4
  store i32 1, ptr %11, align 4
  br label %86

46:                                               ; preds = %4
  %47 = getelementptr inbounds nuw %struct.NSVGcoordinate, ptr %6, i32 0, i32 0
  %48 = load float, ptr %47, align 4, !tbaa !231
  %49 = fdiv float %48, 0x400451EB80000000
  %50 = load ptr, ptr %7, align 8, !tbaa !27
  %51 = getelementptr inbounds nuw %struct.NSVGparser, ptr %50, i32 0, i32 16
  %52 = load float, ptr %51, align 4, !tbaa !29
  %53 = fmul float %49, %52
  store float %53, ptr %5, align 4
  store i32 1, ptr %11, align 4
  br label %86

54:                                               ; preds = %4
  %55 = getelementptr inbounds nuw %struct.NSVGcoordinate, ptr %6, i32 0, i32 0
  %56 = load float, ptr %55, align 4, !tbaa !231
  %57 = load ptr, ptr %7, align 8, !tbaa !27
  %58 = getelementptr inbounds nuw %struct.NSVGparser, ptr %57, i32 0, i32 16
  %59 = load float, ptr %58, align 4, !tbaa !29
  %60 = fmul float %56, %59
  store float %60, ptr %5, align 4
  store i32 1, ptr %11, align 4
  br label %86

61:                                               ; preds = %4
  %62 = getelementptr inbounds nuw %struct.NSVGcoordinate, ptr %6, i32 0, i32 0
  %63 = load float, ptr %62, align 4, !tbaa !231
  %64 = load ptr, ptr %10, align 8, !tbaa !205
  %65 = getelementptr inbounds nuw %struct.NSVGattrib, ptr %64, i32 0, i32 17
  %66 = load float, ptr %65, align 4, !tbaa !237
  %67 = fmul float %63, %66
  store float %67, ptr %5, align 4
  store i32 1, ptr %11, align 4
  br label %86

68:                                               ; preds = %4
  %69 = getelementptr inbounds nuw %struct.NSVGcoordinate, ptr %6, i32 0, i32 0
  %70 = load float, ptr %69, align 4, !tbaa !231
  %71 = load ptr, ptr %10, align 8, !tbaa !205
  %72 = getelementptr inbounds nuw %struct.NSVGattrib, ptr %71, i32 0, i32 17
  %73 = load float, ptr %72, align 4, !tbaa !237
  %74 = fmul float %70, %73
  %75 = fmul float %74, 0x3FE0A3D700000000
  store float %75, ptr %5, align 4
  store i32 1, ptr %11, align 4
  br label %86

76:                                               ; preds = %4
  %77 = load float, ptr %8, align 4, !tbaa !23
  %78 = getelementptr inbounds nuw %struct.NSVGcoordinate, ptr %6, i32 0, i32 0
  %79 = load float, ptr %78, align 4, !tbaa !231
  %80 = fdiv float %79, 1.000000e+02
  %81 = load float, ptr %9, align 4, !tbaa !23
  %82 = call float @llvm.fmuladd.f32(float %80, float %81, float %77)
  store float %82, ptr %5, align 4
  store i32 1, ptr %11, align 4
  br label %86

83:                                               ; preds = %4
  %84 = getelementptr inbounds nuw %struct.NSVGcoordinate, ptr %6, i32 0, i32 0
  %85 = load float, ptr %84, align 4, !tbaa !231
  store float %85, ptr %5, align 4
  store i32 1, ptr %11, align 4
  br label %86

86:                                               ; preds = %83, %76, %68, %61, %54, %46, %38, %30, %22, %19, %16
  call void @llvm.lifetime.end.p0(i64 8, ptr %10) #11
  %87 = load float, ptr %5, align 4
  ret float %87
}

; Function Attrs: nounwind uwtable
define internal float @nsvg__parseCoordinate(ptr noundef %0, ptr noundef %1, float noundef %2, float noundef %3) #0 {
  %5 = alloca ptr, align 8
  %6 = alloca ptr, align 8
  %7 = alloca float, align 4
  %8 = alloca float, align 4
  %9 = alloca %struct.NSVGcoordinate, align 4
  store ptr %0, ptr %5, align 8, !tbaa !27
  store ptr %1, ptr %6, align 8, !tbaa !4
  store float %2, ptr %7, align 4, !tbaa !23
  store float %3, ptr %8, align 4, !tbaa !23
  call void @llvm.lifetime.start.p0(i64 8, ptr %9) #11
  %10 = load ptr, ptr %6, align 8, !tbaa !4
  %11 = call i64 @nsvg__parseCoordinateRaw(ptr noundef %10)
  store i64 %11, ptr %9, align 4
  %12 = load ptr, ptr %5, align 8, !tbaa !27
  %13 = load float, ptr %7, align 4, !tbaa !23
  %14 = load float, ptr %8, align 4, !tbaa !23
  %15 = load i64, ptr %9, align 4
  %16 = call float @nsvg__convertToPixels(ptr noundef %12, i64 %15, float noundef %13, float noundef %14)
  call void @llvm.lifetime.end.p0(i64 8, ptr %9) #11
  ret float %16
}