; Function Attrs: nofree nounwind uwtable
define internal fastcc float @nsvg__parseCoordinate(ptr noundef readonly captures(none) %0, ptr noundef captures(none) %1, float noundef %2, float noundef %3) unnamed_addr #15 {
  %5 = tail call fastcc i64 @nsvg__parseCoordinateRaw(ptr noundef %1)
  %.sroa.0.0.extract.trunc.i = trunc i64 %5 to i32
  %6 = bitcast i32 %.sroa.0.0.extract.trunc.i to float
  %.sroa.12.0.extract.shift.i = lshr i64 %5, 32
  %.sroa.12.0.extract.trunc.i = trunc nuw nsw i64 %.sroa.12.0.extract.shift.i to i32
  %7 = getelementptr inbounds nuw i8, ptr %0, i64 39936
  %8 = load i32, ptr %7, align 8, !tbaa !55
  %9 = sext i32 %8 to i64
  %10 = getelementptr inbounds [128 x %struct.NSVGattrib], ptr %0, i64 0, i64 %9
  switch i32 %.sroa.12.0.extract.trunc.i, label %nsvg__convertToPixels.exit [
    i32 7, label %44
    i32 9, label %39
    i32 2, label %11
    i32 3, label %16
    i32 4, label %21
    i32 5, label %26
    i32 6, label %31
    i32 8, label %35
  ]

11:                                               ; preds = %4
  %12 = fdiv float %6, 7.200000e+01
  %13 = getelementptr inbounds nuw i8, ptr %0, i64 40020
  %14 = load float, ptr %13, align 4, !tbaa !38
  %15 = fmul float %12, %14
  br label %nsvg__convertToPixels.exit

16:                                               ; preds = %4
  %17 = fdiv float %6, 6.000000e+00
  %18 = getelementptr inbounds nuw i8, ptr %0, i64 40020
  %19 = load float, ptr %18, align 4, !tbaa !38
  %20 = fmul float %17, %19
  br label %nsvg__convertToPixels.exit

21:                                               ; preds = %4
  %22 = fdiv float %6, 0x4039666660000000
  %23 = getelementptr inbounds nuw i8, ptr %0, i64 40020
  %24 = load float, ptr %23, align 4, !tbaa !38
  %25 = fmul float %22, %24
  br label %nsvg__convertToPixels.exit

26:                                               ; preds = %4
  %27 = fdiv float %6, 0x400451EB80000000
  %28 = getelementptr inbounds nuw i8, ptr %0, i64 40020
  %29 = load float, ptr %28, align 4, !tbaa !38
  %30 = fmul float %27, %29
  br label %nsvg__convertToPixels.exit

31:                                               ; preds = %4
  %32 = getelementptr inbounds nuw i8, ptr %0, i64 40020
  %33 = load float, ptr %32, align 4, !tbaa !38
  %34 = fmul float %33, %6
  br label %nsvg__convertToPixels.exit

35:                                               ; preds = %4
  %36 = getelementptr inbounds nuw i8, ptr %10, i64 292
  %37 = load float, ptr %36, align 4, !tbaa !56
  %38 = fmul float %37, %6
  br label %nsvg__convertToPixels.exit

39:                                               ; preds = %4
  %40 = getelementptr inbounds nuw i8, ptr %10, i64 292
  %41 = load float, ptr %40, align 4, !tbaa !56
  %42 = fmul float %41, %6
  %43 = fmul float %42, 0x3FE0A3D700000000
  br label %nsvg__convertToPixels.exit

44:                                               ; preds = %4
  %45 = fdiv float %6, 1.000000e+02
  %46 = tail call float @llvm.fmuladd.f32(float %45, float %3, float %2)
  br label %nsvg__convertToPixels.exit

nsvg__convertToPixels.exit:                       ; preds = %4, %11, %16, %21, %26, %31, %35, %39, %44
  %.0.i = phi float [ %46, %44 ], [ %43, %39 ], [ %38, %35 ], [ %34, %31 ], [ %30, %26 ], [ %25, %21 ], [ %20, %16 ], [ %15, %11 ], [ %6, %4 ]
  ret float %.0.i
}